; Function Attrs: mustprogress nounwind uwtable
define void @_ZN5arrow2io8internal14ReadRangeCacheD2Ev(ptr noundef nonnull align 8 captures(none) dereferenceable(8) %0) unnamed_addr #8 align 2 personality ptr @__gxx_personality_v0 {
  %2 = load ptr, ptr %0, align 8, !tbaa !16
  %.not.i = icmp eq ptr %2, null
  br i1 %.not.i, label %_ZNSt10unique_ptrIN5arrow2io8internal14ReadRangeCache4ImplESt14default_deleteIS4_EED2Ev.exit, label %_ZNKSt14default_deleteIN5arrow2io8internal14ReadRangeCache4ImplEEclEPS4_.exit.i

_ZNKSt14default_deleteIN5arrow2io8internal14ReadRangeCache4ImplEEclEPS4_.exit.i: ; preds = %1
  %3 = load ptr, ptr %2, align 8, !tbaa !14
  %4 = getelementptr inbounds nuw i8, ptr %3, i64 8
  %5 = load ptr, ptr %4, align 8
  tail call void %5(ptr noundef nonnull align 8 dereferenceable(128) %2) #22
  br label %_ZNSt10unique_ptrIN5arrow2io8internal14ReadRangeCache4ImplESt14default_deleteIS4_EED2Ev.exit

_ZNSt10unique_ptrIN5arrow2io8internal14ReadRangeCache4ImplESt14default_deleteIS4_EED2Ev.exit: ; preds = %1, %_ZNKSt14default_deleteIN5arrow2io8internal14ReadRangeCache4ImplEEclEPS4_.exit.i
  store ptr null, ptr %0, align 8, !tbaa !16
  ret void
}